target datalayout = "e-m:e-p270:32:32-p271:32:32-p272:64:64-i64:64-i128:128-f80:128-n8:16:32:64-S128"
target triple = "x86_64-unknown-linux-gnu"

%class.btSimulationIslandManager = type <{ ptr, %class.btUnionFind, %class.btAlignedObjectArray.0, %class.btAlignedObjectArray.4, i8, [7 x i8] }>
%class.btUnionFind = type { %class.btAlignedObjectArray }
%class.btAlignedObjectArray = type <{ %class.btAlignedAllocator, [3 x i8], i32, i32, [4 x i8], ptr, i8, [7 x i8] }>
%class.btAlignedAllocator = type { i8 }
%class.btAlignedObjectArray.0 = type <{ %class.btAlignedAllocator.1, [3 x i8], i32, i32, [4 x i8], ptr, i8, [7 x i8] }>
%class.btAlignedAllocator.1 = type { i8 }
%class.btAlignedObjectArray.4 = type <{ %class.btAlignedAllocator.5, [3 x i8], i32, i32, [4 x i8], ptr, i8, [7 x i8] }>
%class.btAlignedAllocator.5 = type { i8 }
%struct.btBroadphasePair = type { ptr, ptr, ptr, %union.anon.8 }
%union.anon.8 = type { ptr }
%struct.btBroadphaseProxy = type <{ ptr, i32, i32, i32, %class.btVector3, %class.btVector3, [4 x i8] }>
%class.btVector3 = type { [4 x float] }
%class.btCollisionWorld = type <{ ptr, %class.btAlignedObjectArray.4, ptr, %struct.btDispatcherInfo, ptr, ptr, i8, [7 x i8] }>
%struct.btDispatcherInfo = type <{ float, i32, i32, float, i8, [7 x i8], ptr, i8, i8, i8, i8, float, i8, [3 x i8], float, i8, [7 x i8] }>
%class.btCollisionObject = type <{ ptr, %class.btTransform, %class.btTransform, %class.btVector3, %class.btVector3, %class.btVector3, i32, float, ptr, ptr, ptr, ptr, i32, i32, i32, i32, i32, float, float, float, float, float, float, float, i32, [4 x i8], ptr, i32, i32, i32, float, float, float, i32, [4 x i8], %class.btAlignedObjectArray.9, i32, %class.btVector3, [4 x i8] }>
%class.btTransform = type { %class.btMatrix3x3, %class.btVector3 }
%class.btMatrix3x3 = type { [3 x %class.btVector3] }
%class.btAlignedObjectArray.9 = type <{ %class.btAlignedAllocator.10, [3 x i8], i32, i32, [4 x i8], ptr, i8, [7 x i8] }>
%class.btAlignedAllocator.10 = type { i8 }
%struct.btElement = type { i32, i32 }

; Function Attrs: mustprogress nounwind uwtable
define linkonce_odr dso_local noundef nonnull align 4 dereferenceable(8) ptr @_ZN20btAlignedObjectArrayI9btElementEixEi(ptr noundef nonnull align 8 dereferenceable(25) %this, i32 noundef %n) #1 comdat align 2 {
entry:
  %this.addr = alloca ptr, align 8
  %n.addr = alloca i32, align 4
  store ptr %this, ptr %this.addr, align 8
  store i32 %n, ptr %n.addr, align 4
  %this1 = load ptr, ptr %this.addr, align 8
  %m_data = getelementptr inbounds %class.btAlignedObjectArray, ptr %this1, i32 0, i32 5
  %0 = load ptr, ptr %m_data, align 8
  %1 = load i32, ptr %n.addr, align 4
  %idxprom = sext i32 %1 to i64
  %arrayidx = getelementptr inbounds %struct.btElement, ptr %0, i64 %idxprom
  ret ptr %arrayidx
}

; Function Attrs: mustprogress nounwind uwtable
define linkonce_odr dso_local noundef i32 @_ZN11btUnionFind4findEi(ptr noundef nonnull align 8 dereferenceable(32) %this, i32 noundef %x) #1 comdat align 2 {
entry:
  %this.addr = alloca ptr, align 8
  %x.addr = alloca i32, align 4
  %elementPtr = alloca ptr, align 8
  store ptr %this, ptr %this.addr, align 8
  store i32 %x, ptr %x.addr, align 4
  %this1 = load ptr, ptr %this.addr, align 8
  br label %while.cond

while.cond:                                       ; preds = %while.body, %entry
  %0 = load i32, ptr %x.addr, align 4
  %m_elements = getelementptr inbounds %class.btUnionFind, ptr %this1, i32 0, i32 0
  %1 = load i32, ptr %x.addr, align 4
  %call = call noundef nonnull align 4 dereferenceable(8) ptr @_ZN20btAlignedObjectArrayI9btElementEixEi(ptr noundef nonnull align 8 dereferenceable(25) %m_elements, i32 noundef %1)
  %m_id = getelementptr inbounds %struct.btElement, ptr %call, i32 0, i32 0
  %2 = load i32, ptr %m_id, align 4
  %cmp = icmp ne i32 %0, %2
  br i1 %cmp, label %while.body, label %while.end

while.body:                                       ; preds = %while.cond
  %m_elements2 = getelementptr inbounds %class.btUnionFind, ptr %this1, i32 0, i32 0
  %m_elements3 = getelementptr inbounds %class.btUnionFind, ptr %this1, i32 0, i32 0
  %3 = load i32, ptr %x.addr, align 4
  %call4 = call noundef nonnull align 4 dereferenceable(8) ptr @_ZN20btAlignedObjectArrayI9btElementEixEi(ptr noundef nonnull align 8 dereferenceable(25) %m_elements3, i32 noundef %3)
  %m_id5 = getelementptr inbounds %struct.btElement, ptr %call4, i32 0, i32 0
  %4 = load i32, ptr %m_id5, align 4
  %call6 = call noundef nonnull align 4 dereferenceable(8) ptr @_ZN20btAlignedObjectArrayI9btElementEixEi(ptr noundef nonnull align 8 dereferenceable(25) %m_elements2, i32 noundef %4)
  store ptr %call6, ptr %elementPtr, align 8
  %5 = load ptr, ptr %elementPtr, align 8
  %m_id7 = getelementptr inbounds %struct.btElement, ptr %5, i32 0, i32 0
  %6 = load i32, ptr %m_id7, align 4
  %m_elements8 = getelementptr inbounds %class.btUnionFind, ptr %this1, i32 0, i32 0
  %7 = load i32, ptr %x.addr, align 4
  %call9 = call noundef nonnull align 4 dereferenceable(8) ptr @_ZN20btAlignedObjectArrayI9btElementEixEi(ptr noundef nonnull align 8 dereferenceable(25) %m_elements8, i32 noundef %7)
  %m_id10 = getelementptr inbounds %struct.btElement, ptr %call9, i32 0, i32 0
  store i32 %6, ptr %m_id10, align 4
  %8 = load ptr, ptr %elementPtr, align 8
  %m_id11 = getelementptr inbounds %struct.btElement, ptr %8, i32 0, i32 0
  %9 = load i32, ptr %m_id11, align 4
  store i32 %9, ptr %x.addr, align 4
  br label %while.cond, !llvm.loop !9

while.end:                                        ; preds = %while.cond
  %10 = load i32, ptr %x.addr, align 4
  ret i32 %10
}

; Function Attrs: mustprogress uwtable
define linkonce_odr dso_local void @_ZN11btUnionFind5uniteEii(ptr noundef nonnull align 8 dereferenceable(32) %this, i32 noundef %p, i32 noundef %q) #2 comdat align 2 {
entry:
  %this.addr = alloca ptr, align 8
  %p.addr = alloca i32, align 4
  %q.addr = alloca i32, align 4
  %i = alloca i32, align 4
  %j = alloca i32, align 4
  store ptr %this, ptr %this.addr, align 8
  store i32 %p, ptr %p.addr, align 4
  store i32 %q, ptr %q.addr, align 4
  %this1 = load ptr, ptr %this.addr, align 8
  %0 = load i32, ptr %p.addr, align 4
  %call = call noundef i32 @_ZN11btUnionFind4findEi(ptr noundef nonnull align 8 dereferenceable(32) %this1, i32 noundef %0)
  store i32 %call, ptr %i, align 4
  %1 = load i32, ptr %q.addr, align 4
  %call2 = call noundef i32 @_ZN11btUnionFind4findEi(ptr noundef nonnull align 8 dereferenceable(32) %this1, i32 noundef %1)
  store i32 %call2, ptr %j, align 4
  %2 = load i32, ptr %i, align 4
  %3 = load i32, ptr %j, align 4
  %cmp = icmp eq i32 %2, %3
  br i1 %cmp, label %if.then, label %if.end

if.then:                                          ; preds = %entry
  br label %return

if.end:                                           ; preds = %entry
  %4 = load i32, ptr %j, align 4
  %m_elements = getelementptr inbounds %class.btUnionFind, ptr %this1, i32 0, i32 0
  %5 = load i32, ptr %i, align 4
  %call3 = call noundef nonnull align 4 dereferenceable(8) ptr @_ZN20btAlignedObjectArrayI9btElementEixEi(ptr noundef nonnull align 8 dereferenceable(25) %m_elements, i32 noundef %5)
  %m_id = getelementptr inbounds %struct.btElement, ptr %call3, i32 0, i32 0
  store i32 %4, ptr %m_id, align 4
  %m_elements4 = getelementptr inbounds %class.btUnionFind, ptr %this1, i32 0, i32 0
  %6 = load i32, ptr %i, align 4
  %call5 = call noundef nonnull align 4 dereferenceable(8) ptr @_ZN20btAlignedObjectArrayI9btElementEixEi(ptr noundef nonnull align 8 dereferenceable(25) %m_elements4, i32 noundef %6)
  %m_sz = getelementptr inbounds %struct.btElement, ptr %call5, i32 0, i32 1
  %7 = load i32, ptr %m_sz, align 4
  %m_elements6 = getelementptr inbounds %class.btUnionFind, ptr %this1, i32 0, i32 0
  %8 = load i32, ptr %j, align 4
  %call7 = call noundef nonnull align 4 dereferenceable(8) ptr @_ZN20btAlignedObjectArrayI9btElementEixEi(ptr noundef nonnull align 8 dereferenceable(25) %m_elements6, i32 noundef %8)
  %m_sz8 = getelementptr inbounds %struct.btElement, ptr %call7, i32 0, i32 1
  %9 = load i32, ptr %m_sz8, align 4
  %add = add nsw i32 %9, %7
  store i32 %add, ptr %m_sz8, align 4
  br label %return

return:                                           ; preds = %if.end, %if.then
  ret void
}

; Function Attrs: mustprogress nounwind uwtable
define linkonce_odr dso_local noundef i32 @_ZNK17btCollisionObject12getIslandTagEv(ptr noundef nonnull align 8 dereferenceable(372) %this) #1 comdat align 2 {
entry:
  %this.addr = alloca ptr, align 8
  store ptr %this, ptr %this.addr, align 8
  %this1 = load ptr, ptr %this.addr, align 8
  %m_islandTag1 = getelementptr inbounds %class.btCollisionObject, ptr %this1, i32 0, i32 13
  %0 = load i32, ptr %m_islandTag1, align 4
  ret i32 %0
}

; Function Attrs: mustprogress nounwind uwtable
define linkonce_odr dso_local noundef zeroext i1 @_ZNK17btCollisionObject23mergesSimulationIslandsEv(ptr noundef nonnull align 8 dereferenceable(372) %this) #1 comdat align 2 {
entry:
  %this.addr = alloca ptr, align 8
  store ptr %this, ptr %this.addr, align 8
  %this1 = load ptr, ptr %this.addr, align 8
  %m_collisionFlags = getelementptr inbounds %class.btCollisionObject, ptr %this1, i32 0, i32 12
  %0 = load i32, ptr %m_collisionFlags, align 8
  %and = and i32 %0, 7
  %cmp = icmp eq i32 %and, 0
  ret i1 %cmp
}

; Function Attrs: mustprogress uwtable
define linkonce_odr dso_local noundef ptr @_ZN16btCollisionWorld12getPairCacheEv(ptr noundef nonnull align 8 dereferenceable(121) %this) #2 comdat align 2 {
entry:
  %this.addr = alloca ptr, align 8
  store ptr %this, ptr %this.addr, align 8
  %this1 = load ptr, ptr %this.addr, align 8
  %m_broadphasePairCache = getelementptr inbounds %class.btCollisionWorld, ptr %this1, i32 0, i32 4
  %0 = load ptr, ptr %m_broadphasePairCache, align 8
  %vtable = load ptr, ptr %0, align 8
  %vfn = getelementptr inbounds ptr, ptr %vtable, i64 9
  %1 = load ptr, ptr %vfn, align 8
  %call = call noundef ptr %1(ptr noundef nonnull align 8 dereferenceable(8) %0)
  ret ptr %call
}

; Function Attrs: mustprogress uwtable
define dso_local void @_ZN25btSimulationIslandManager10findUnionsEP12btDispatcherP16btCollisionWorld(ptr noundef nonnull align 8 dereferenceable(105) %this, ptr noundef %0, ptr noundef %colWorld) #2 align 2 {
entry:
  %this.addr = alloca ptr, align 8
  %.addr = alloca ptr, align 8
  %colWorld.addr = alloca ptr, align 8
  %pairCachePtr = alloca ptr, align 8
  %numOverlappingPairs = alloca i32, align 4
  %pairPtr = alloca ptr, align 8
  %i = alloca i32, align 4
  %collisionPair = alloca ptr, align 8
  %colObj0 = alloca ptr, align 8
  %colObj1 = alloca ptr, align 8
  store ptr %this, ptr %this.addr, align 8
  store ptr %0, ptr %.addr, align 8
  store ptr %colWorld, ptr %colWorld.addr, align 8
  %this1 = load ptr, ptr %this.addr, align 8
  %1 = load ptr, ptr %colWorld.addr, align 8
  %call = call noundef ptr @_ZN16btCollisionWorld12getPairCacheEv(ptr noundef nonnull align 8 dereferenceable(121) %1)
  store ptr %call, ptr %pairCachePtr, align 8
  %2 = load ptr, ptr %pairCachePtr, align 8
  %vtable = load ptr, ptr %2, align 8
  %vfn = getelementptr inbounds ptr, ptr %vtable, i64 9
  %3 = load ptr, ptr %vfn, align 8
  %call2 = call noundef i32 %3(ptr noundef nonnull align 8 dereferenceable(8) %2)
  store i32 %call2, ptr %numOverlappingPairs, align 4
  %4 = load i32, ptr %numOverlappingPairs, align 4
  %tobool = icmp ne i32 %4, 0
  br i1 %tobool, label %if.then, label %if.end16

if.then:                                          ; preds = %entry
  %5 = load ptr, ptr %pairCachePtr, align 8
  %vtable3 = load ptr, ptr %5, align 8
  %vfn4 = getelementptr inbounds ptr, ptr %vtable3, i64 5
  %6 = load ptr, ptr %vfn4, align 8
  %call5 = call noundef ptr %6(ptr noundef nonnull align 8 dereferenceable(8) %5)
  store ptr %call5, ptr %pairPtr, align 8
  store i32 0, ptr %i, align 4
  br label %for.cond

for.cond:                                         ; preds = %for.inc, %if.then
  %7 = load i32, ptr %i, align 4
  %8 = load i32, ptr %numOverlappingPairs, align 4
  %cmp = icmp slt i32 %7, %8
  br i1 %cmp, label %for.body, label %for.end

for.body:                                         ; preds = %for.cond
  %9 = load ptr, ptr %pairPtr, align 8
  %10 = load i32, ptr %i, align 4
  %idxprom = sext i32 %10 to i64
  %arrayidx = getelementptr inbounds %struct.btBroadphasePair, ptr %9, i64 %idxprom
  store ptr %arrayidx, ptr %collisionPair, align 8
  %11 = load ptr, ptr %collisionPair, align 8
  %m_pProxy0 = getelementptr inbounds %struct.btBroadphasePair, ptr %11, i32 0, i32 0
  %12 = load ptr, ptr %m_pProxy0, align 8
  %m_clientObject = getelementptr inbounds %struct.btBroadphaseProxy, ptr %12, i32 0, i32 0
  %13 = load ptr, ptr %m_clientObject, align 8
  store ptr %13, ptr %colObj0, align 8
  %14 = load ptr, ptr %collisionPair, align 8
  %m_pProxy1 = getelementptr inbounds %struct.btBroadphasePair, ptr %14, i32 0, i32 1
  %15 = load ptr, ptr %m_pProxy1, align 8
  %m_clientObject6 = getelementptr inbounds %struct.btBroadphaseProxy, ptr %15, i32 0, i32 0
  %16 = load ptr, ptr %m_clientObject6, align 8
  store ptr %16, ptr %colObj1, align 8
  %17 = load ptr, ptr %colObj0, align 8
  %tobool7 = icmp ne ptr %17, null
  br i1 %tobool7, label %land.lhs.true, label %if.end

land.lhs.true:                                    ; preds = %for.body
  %18 = load ptr, ptr %colObj0, align 8
  %call8 = call noundef zeroext i1 @_ZNK17btCollisionObject23mergesSimulationIslandsEv(ptr noundef nonnull align 8 dereferenceable(372) %18)
  br i1 %call8, label %land.lhs.true9, label %if.end

land.lhs.true9:                                   ; preds = %land.lhs.true
  %19 = load ptr, ptr %colObj1, align 8
  %tobool10 = icmp ne ptr %19, null
  br i1 %tobool10, label %land.lhs.true11, label %if.end

land.lhs.true11:                                  ; preds = %land.lhs.true9
  %20 = load ptr, ptr %colObj1, align 8
  %call12 = call noundef zeroext i1 @_ZNK17btCollisionObject23mergesSimulationIslandsEv(ptr noundef nonnull align 8 dereferenceable(372) %20)
  br i1 %call12, label %if.then13, label %if.end

if.then13:                                        ; preds = %land.lhs.true11
  %m_unionFind = getelementptr inbounds %class.btSimulationIslandManager, ptr %this1, i32 0, i32 1
  %21 = load ptr, ptr %colObj0, align 8
  %call14 = call noundef i32 @_ZNK17btCollisionObject12getIslandTagEv(ptr noundef nonnull align 8 dereferenceable(372) %21)
  %22 = load ptr, ptr %colObj1, align 8
  %call15 = call noundef i32 @_ZNK17btCollisionObject12getIslandTagEv(ptr noundef nonnull align 8 dereferenceable(372) %22)
  call void @_ZN11btUnionFind5uniteEii(ptr noundef nonnull align 8 dereferenceable(32) %m_unionFind, i32 noundef %call14, i32 noundef %call15)
  br label %if.end

if.end:                                           ; preds = %if.then13, %land.lhs.true11, %land.lhs.true9, %land.lhs.true, %for.body
  br label %for.inc

for.inc:                                          ; preds = %if.end
  %23 = load i32, ptr %i, align 4
  %inc = add nsw i32 %23, 1
  store i32 %inc, ptr %i, align 4
  br label %for.cond, !llvm.loop !5

for.end:                                          ; preds = %for.cond
  br label %if.end16

if.end16:                                         ; preds = %for.end, %entry
  ret void
}