; Function Attrs: mustprogress uwtable
define dso_local void @_ZN25btSimulationIslandManager10findUnionsEP12btDispatcherP16btCollisionWorld(ptr nocapture noundef nonnull readonly align 8 dereferenceable(105) %this, ptr nocapture readnone %0, ptr nocapture noundef readonly %colWorld) local_unnamed_addr #0 align 2 {
entry:
  %m_broadphasePairCache.i = getelementptr inbounds i8, ptr %colWorld, i64 104
  %1 = load ptr, ptr %m_broadphasePairCache.i, align 8
  %vtable.i = load ptr, ptr %1, align 8
  %vfn.i = getelementptr inbounds i8, ptr %vtable.i, i64 72
  %2 = load ptr, ptr %vfn.i, align 8
  %call.i = tail call noundef ptr %2(ptr noundef nonnull align 8 dereferenceable(8) %1)
  %vtable = load ptr, ptr %call.i, align 8
  %vfn = getelementptr inbounds i8, ptr %vtable, i64 72
  %3 = load ptr, ptr %vfn, align 8
  %call2 = tail call noundef i32 %3(ptr noundef nonnull align 8 dereferenceable(8) %call.i)
  %tobool.not = icmp eq i32 %call2, 0
  br i1 %tobool.not, label %if.end16, label %if.then

if.then:                                          ; preds = %entry
  %vtable3 = load ptr, ptr %call.i, align 8
  %vfn4 = getelementptr inbounds i8, ptr %vtable3, i64 40
  %4 = load ptr, ptr %vfn4, align 8
  %call5 = tail call noundef ptr %4(ptr noundef nonnull align 8 dereferenceable(8) %call.i)
  %cmp19 = icmp sgt i32 %call2, 0
  br i1 %cmp19, label %for.body.lr.ph, label %if.end16

for.body.lr.ph:                                   ; preds = %if.then
  %m_data.i.i.i = getelementptr inbounds i8, ptr %this, i64 24
  %wide.trip.count = zext nneg i32 %call2 to i64
  br label %for.body

for.body:                                         ; preds = %for.body.lr.ph, %for.inc
  %indvars.iv = phi i64 [ 0, %for.body.lr.ph ], [ %indvars.iv.next, %for.inc ]
  %arrayidx = getelementptr inbounds %struct.btBroadphasePair, ptr %call5, i64 %indvars.iv
  %5 = load ptr, ptr %arrayidx, align 8
  %6 = load ptr, ptr %5, align 8
  %m_pProxy1 = getelementptr inbounds i8, ptr %arrayidx, i64 8
  %7 = load ptr, ptr %m_pProxy1, align 8
  %8 = load ptr, ptr %7, align 8
  %tobool7.not = icmp eq ptr %6, null
  br i1 %tobool7.not, label %for.inc, label %land.lhs.true

land.lhs.true:                                    ; preds = %for.body
  %m_collisionFlags.i = getelementptr inbounds i8, ptr %6, i64 224
  %9 = load i32, ptr %m_collisionFlags.i, align 8
  %and.i = and i32 %9, 7
  %cmp.i = icmp eq i32 %and.i, 0
  %tobool10 = icmp ne ptr %8, null
  %or.cond = select i1 %cmp.i, i1 %tobool10, i1 false
  br i1 %or.cond, label %land.lhs.true11, label %for.inc

land.lhs.true11:                                  ; preds = %land.lhs.true
  %m_collisionFlags.i11 = getelementptr inbounds i8, ptr %8, i64 224
  %10 = load i32, ptr %m_collisionFlags.i11, align 8
  %and.i12 = and i32 %10, 7
  %cmp.i13 = icmp eq i32 %and.i12, 0
  br i1 %cmp.i13, label %if.then13, label %for.inc

if.then13:                                        ; preds = %land.lhs.true11
  %m_islandTag1.i = getelementptr inbounds i8, ptr %6, i64 228
  %11 = load i32, ptr %m_islandTag1.i, align 4
  %m_islandTag1.i14 = getelementptr inbounds i8, ptr %8, i64 228
  %12 = load i32, ptr %m_islandTag1.i14, align 4
  %13 = load ptr, ptr %m_data.i.i.i, align 8
  %idxprom.i15.i.i = sext i32 %11 to i64
  %arrayidx.i16.i.i = getelementptr inbounds %struct.btElement, ptr %13, i64 %idxprom.i15.i.i
  %14 = load i32, ptr %arrayidx.i16.i.i, align 4
  %cmp.not17.i.i = icmp eq i32 %14, %11
  br i1 %cmp.not17.i.i, label %_ZN11btUnionFind4findEi.exit.i, label %while.body.i.i

while.body.i.i:                                   ; preds = %if.then13, %while.body.i.i
  %15 = phi i32 [ %19, %while.body.i.i ], [ %14, %if.then13 ]
  %arrayidx.i18.i.i = phi ptr [ %arrayidx.i.i.i, %while.body.i.i ], [ %arrayidx.i16.i.i, %if.then13 ]
  %16 = phi ptr [ %18, %while.body.i.i ], [ %13, %if.then13 ]
  %idxprom.i10.i.i = sext i32 %15 to i64
  %arrayidx.i11.i.i = getelementptr inbounds %struct.btElement, ptr %16, i64 %idxprom.i10.i.i
  %17 = load i32, ptr %arrayidx.i11.i.i, align 4
  store i32 %17, ptr %arrayidx.i18.i.i, align 4
  %18 = load ptr, ptr %m_data.i.i.i, align 8
  %idxprom.i.i.i = sext i32 %17 to i64
  %arrayidx.i.i.i = getelementptr inbounds %struct.btElement, ptr %18, i64 %idxprom.i.i.i
  %19 = load i32, ptr %arrayidx.i.i.i, align 4
  %cmp.not.i.i = icmp eq i32 %17, %19
  br i1 %cmp.not.i.i, label %_ZN11btUnionFind4findEi.exit.i, label %while.body.i.i, !llvm.loop !5

_ZN11btUnionFind4findEi.exit.i:                   ; preds = %while.body.i.i, %if.then13
  %20 = phi ptr [ %13, %if.then13 ], [ %18, %while.body.i.i ]
  %x.addr.0.lcssa.i.i = phi i32 [ %11, %if.then13 ], [ %17, %while.body.i.i ]
  %idxprom.i15.i6.i = sext i32 %12 to i64
  %arrayidx.i16.i7.i = getelementptr inbounds %struct.btElement, ptr %20, i64 %idxprom.i15.i6.i
  %21 = load i32, ptr %arrayidx.i16.i7.i, align 4
  %cmp.not17.i8.i = icmp eq i32 %21, %12
  br i1 %cmp.not17.i8.i, label %_ZN11btUnionFind4findEi.exit17.i, label %while.body.i9.i

while.body.i9.i:                                  ; preds = %_ZN11btUnionFind4findEi.exit.i, %while.body.i9.i
  %22 = phi i32 [ %26, %while.body.i9.i ], [ %21, %_ZN11btUnionFind4findEi.exit.i ]
  %arrayidx.i18.i10.i = phi ptr [ %arrayidx.i.i14.i, %while.body.i9.i ], [ %arrayidx.i16.i7.i, %_ZN11btUnionFind4findEi.exit.i ]
  %23 = phi ptr [ %25, %while.body.i9.i ], [ %20, %_ZN11btUnionFind4findEi.exit.i ]
  %idxprom.i10.i11.i = sext i32 %22 to i64
  %arrayidx.i11.i12.i = getelementptr inbounds %struct.btElement, ptr %23, i64 %idxprom.i10.i11.i
  %24 = load i32, ptr %arrayidx.i11.i12.i, align 4
  store i32 %24, ptr %arrayidx.i18.i10.i, align 4
  %25 = load ptr, ptr %m_data.i.i.i, align 8
  %idxprom.i.i13.i = sext i32 %24 to i64
  %arrayidx.i.i14.i = getelementptr inbounds %struct.btElement, ptr %25, i64 %idxprom.i.i13.i
  %26 = load i32, ptr %arrayidx.i.i14.i, align 4
  %cmp.not.i15.i = icmp eq i32 %24, %26
  br i1 %cmp.not.i15.i, label %_ZN11btUnionFind4findEi.exit17.i, label %while.body.i9.i, !llvm.loop !5

_ZN11btUnionFind4findEi.exit17.i:                 ; preds = %while.body.i9.i, %_ZN11btUnionFind4findEi.exit.i
  %27 = phi ptr [ %20, %_ZN11btUnionFind4findEi.exit.i ], [ %25, %while.body.i9.i ]
  %x.addr.0.lcssa.i16.i = phi i32 [ %12, %_ZN11btUnionFind4findEi.exit.i ], [ %24, %while.body.i9.i ]
  %cmp.i15 = icmp eq i32 %x.addr.0.lcssa.i.i, %x.addr.0.lcssa.i16.i
  br i1 %cmp.i15, label %for.inc, label %if.end.i

if.end.i:                                         ; preds = %_ZN11btUnionFind4findEi.exit17.i
  %idxprom.i.i = sext i32 %x.addr.0.lcssa.i.i to i64
  %arrayidx.i.i = getelementptr inbounds %struct.btElement, ptr %27, i64 %idxprom.i.i
  store i32 %x.addr.0.lcssa.i16.i, ptr %arrayidx.i.i, align 4
  %28 = load ptr, ptr %m_data.i.i.i, align 8
  %m_sz.i = getelementptr inbounds %struct.btElement, ptr %28, i64 %idxprom.i.i, i32 1
  %29 = load i32, ptr %m_sz.i, align 4
  %idxprom.i22.i = sext i32 %x.addr.0.lcssa.i16.i to i64
  %m_sz8.i = getelementptr inbounds %struct.btElement, ptr %28, i64 %idxprom.i22.i, i32 1
  %30 = load i32, ptr %m_sz8.i, align 4
  %add.i = add nsw i32 %30, %29
  store i32 %add.i, ptr %m_sz8.i, align 4
  br label %for.inc

for.inc:                                          ; preds = %if.end.i, %_ZN11btUnionFind4findEi.exit17.i, %for.body, %land.lhs.true, %land.lhs.true11
  %indvars.iv.next = add nuw nsw i64 %indvars.iv, 1
  %exitcond.not = icmp eq i64 %indvars.iv.next, %wide.trip.count
  br i1 %exitcond.not, label %if.end16, label %for.body, !llvm.loop !7

if.end16:                                         ; preds = %for.inc, %if.then, %entry
  ret void
}